; Function Attrs: nounwind uwtable
define ptr @l_Lean_Expr_ne_x3f(ptr noundef %0) local_unnamed_addr #0 {
  %2 = load ptr, ptr @l_Lean_Expr_ne_x3f___closed__2, align 8, !tbaa !4
  %3 = tail call zeroext i8 @l_Lean_Expr_isAppOfArity(ptr noundef %0, ptr noundef %2, ptr noundef nonnull inttoptr (i64 7 to ptr)) #4
  %4 = icmp eq i8 %3, 0
  br i1 %4, label %46, label %5

5:                                                ; preds = %1
  %6 = tail call ptr @l_Lean_Expr_appFn_x21(ptr noundef %0) #4
  %7 = tail call ptr @l_Lean_Expr_appFn_x21(ptr noundef %6) #4
  %8 = tail call ptr @l_Lean_Expr_appArg_x21(ptr noundef %7) #4
  %9 = ptrtoint ptr %7 to i64
  %10 = and i64 %9, 1
  %.not = icmp eq i64 %10, 0
  br i1 %.not, label %11, label %lean_dec.exit23

11:                                               ; preds = %5
  %12 = load i32, ptr %7, align 4, !tbaa !8
  %13 = icmp sgt i32 %12, 1
  br i1 %13, label %14, label %16, !prof !11

14:                                               ; preds = %11
  %15 = add nsw i32 %12, -1
  store i32 %15, ptr %7, align 4, !tbaa !8
  br label %lean_dec.exit23

16:                                               ; preds = %11
  %.not.i = icmp eq i32 %12, 0
  br i1 %.not.i, label %lean_dec.exit23, label %17

17:                                               ; preds = %16
  tail call void @lean_dec_ref_cold(ptr noundef nonnull %7) #4
  br label %lean_dec.exit23

lean_dec.exit23:                                  ; preds = %17, %16, %14, %5
  %18 = tail call ptr @l_Lean_Expr_appArg_x21(ptr noundef %6) #4
  %19 = ptrtoint ptr %6 to i64
  %20 = and i64 %19, 1
  %.not28 = icmp eq i64 %20, 0
  br i1 %.not28, label %21, label %lean_dec.exit

21:                                               ; preds = %lean_dec.exit23
  %22 = load i32, ptr %6, align 4, !tbaa !8
  %23 = icmp sgt i32 %22, 1
  br i1 %23, label %24, label %26, !prof !11

24:                                               ; preds = %21
  %25 = add nsw i32 %22, -1
  store i32 %25, ptr %6, align 4, !tbaa !8
  br label %lean_dec.exit

26:                                               ; preds = %21
  %.not.i24 = icmp eq i32 %22, 0
  br i1 %.not.i24, label %lean_dec.exit, label %27

27:                                               ; preds = %26
  tail call void @lean_dec_ref_cold(ptr noundef nonnull %6) #4
  br label %lean_dec.exit

lean_dec.exit:                                    ; preds = %27, %26, %24, %lean_dec.exit23
  %28 = tail call ptr @l_Lean_Expr_appArg_x21(ptr noundef %0) #4
  tail call void @lean_inc_heartbeat() #4
  %29 = tail call noalias ptr @mi_malloc_small(i64 noundef 24) #4
  %30 = icmp eq ptr %29, null
  br i1 %30, label %31, label %lean_alloc_ctor.exit

31:                                               ; preds = %lean_dec.exit
  tail call void @lean_internal_panic_out_of_memory() #5
  unreachable

lean_alloc_ctor.exit:                             ; preds = %lean_dec.exit
  %32 = getelementptr inbounds nuw i8, ptr %29, i64 4
  store i32 1, ptr %29, align 4, !tbaa !8
  store i32 131096, ptr %32, align 4
  %33 = getelementptr inbounds nuw i8, ptr %29, i64 8
  store ptr %18, ptr %33, align 8, !tbaa !4
  %34 = getelementptr inbounds nuw i8, ptr %29, i64 16
  store ptr %28, ptr %34, align 8, !tbaa !4
  tail call void @lean_inc_heartbeat() #4
  %35 = tail call noalias ptr @mi_malloc_small(i64 noundef 24) #4
  %36 = icmp eq ptr %35, null
  br i1 %36, label %37, label %lean_alloc_ctor.exit26

37:                                               ; preds = %lean_alloc_ctor.exit
  tail call void @lean_internal_panic_out_of_memory() #5
  unreachable

lean_alloc_ctor.exit26:                           ; preds = %lean_alloc_ctor.exit
  %38 = getelementptr inbounds nuw i8, ptr %35, i64 4
  store i32 1, ptr %35, align 4, !tbaa !8
  store i32 131096, ptr %38, align 4
  %39 = getelementptr inbounds nuw i8, ptr %35, i64 8
  store ptr %8, ptr %39, align 8, !tbaa !4
  %40 = getelementptr inbounds nuw i8, ptr %35, i64 16
  store ptr %29, ptr %40, align 8, !tbaa !4
  tail call void @lean_inc_heartbeat() #4
  %41 = tail call noalias ptr @mi_malloc_small(i64 noundef 16) #4
  %42 = icmp eq ptr %41, null
  br i1 %42, label %43, label %lean_alloc_ctor.exit27

43:                                               ; preds = %lean_alloc_ctor.exit26
  tail call void @lean_internal_panic_out_of_memory() #5
  unreachable

lean_alloc_ctor.exit27:                           ; preds = %lean_alloc_ctor.exit26
  %44 = getelementptr inbounds nuw i8, ptr %41, i64 4
  store i32 1, ptr %41, align 4, !tbaa !8
  store i32 16842768, ptr %44, align 4
  %45 = getelementptr inbounds nuw i8, ptr %41, i64 8
  store ptr %35, ptr %45, align 8, !tbaa !4
  br label %46

46:                                               ; preds = %1, %lean_alloc_ctor.exit27
  %.0 = phi ptr [ %41, %lean_alloc_ctor.exit27 ], [ inttoptr (i64 1 to ptr), %1 ]
  ret ptr %.0
}